(dp1
S'JN2'
p2
(F7.2892459999999996e-06
F3.6446229999999998e-06
tp3
sS'CH3CH2OH'
p4
(F1.305913e-12
F6.5295649999999998e-13
tp5
sS'CH5+'
p6
(F3.3171809999999998e-11
F1.6585904999999999e-11
tp7
sS'HC4O+'
p8
(F8.4112710000000001e-13
F4.2056355000000001e-13
tp9
sS'CO2+'
p10
(F6.7256090000000003e-19
F3.3628045000000001e-19
tp11
sS'JPH2'
p12
(F2.148542e-14
F1.074271e-14
tp13
sS'NH2+'
p14
(F8.3351339999999995e-15
F4.1675669999999997e-15
tp15
sS'C2O+'
p16
(F6.3477780000000003e-15
F3.1738890000000002e-15
tp17
sS'JSiC3H'
p18
(F1.0160459999999999e-11
F5.0802299999999996e-12
tp19
sS'SiC2+'
p20
(F4.8352210000000004e-19
F2.4176105000000002e-19
tp21
sS'OCS+'
p22
(F1.3296379999999999e-13
F6.6481899999999997e-14
tp23
sS'CHSi+'
p24
(F3.5417809999999999e-19
F1.7708905e-19
tp25
sS'H5C2O2+'
p26
(F6.2333619999999996e-15
F3.1166809999999998e-15
tp27
sS'MgH2'
p28
(F2.8227980000000001e-12
F1.4113990000000001e-12
tp29
sS'JCH3CHO'
p30
(F3.1750729999999998e-12
F1.5875364999999999e-12
tp31
sS'H2NO+'
p32
(F2.9229929999999997e-11
F1.4614964999999999e-11
tp33
sS'O2+'
p34
(F7.6258439999999998e-13
F3.8129219999999999e-13
tp35
sS'SiCH4+'
p36
(F3.1064449999999998e-16
F1.5532224999999999e-16
tp37
sS'SO2+'
p38
(F3.9800400000000003e-17
F1.9900200000000001e-17
tp39
sS'Jl-C3H2'
p40
(F3.386664e-13
F1.693332e-13
tp41
sS'H2F+'
p42
(F1.041435e-12
F5.207175e-13
tp43
sS'JCH3C4H'
p44
(F3.1948650000000002e-10
F1.5974325000000001e-10
tp45
sS'P'
(F3.1436840000000002e-11
F1.5718420000000001e-11
tp46
sS'JNa'
p47
(F1.972273e-16
F9.8613649999999998e-17
tp48
sS'JHC6N'
p49
(F6.2930279999999995e-10
F3.1465139999999997e-10
tp50
sS'O2H'
p51
(F6.7904760000000001e-12
F3.395238e-12
tp52
sS'SiC3H2+'
p53
(F1.373491e-14
F6.8674549999999999e-15
tp54
sS'c-HCCHSi'
p55
(F1.4990520000000001e-11
F7.4952600000000005e-12
tp56
sS'JNS'
p57
(F2.4810009999999999e-11
F1.2405004999999999e-11
tp58
sS'H2SiO+'
p59
(F2.665416e-16
F1.332708e-16
tp60
sS'CP+'
p61
(F3.2631030000000001e-21
F1.6315515000000001e-21
tp62
sS'SiCH3+'
p63
(F9.0574749999999999e-15
F4.5287375e-15
tp64
sS'HCN+'
p65
(F1.3541460000000001e-15
F6.7707300000000003e-16
tp66
sS'JNH'
p67
(F8.7391030000000003e-13
F4.3695515000000002e-13
tp68
sS'JNO'
p69
(F5.110756e-14
F2.555378e-14
tp70
sS'H2Cl+'
p71
(F2.0298509999999999e-14
F1.0149255e-14
tp72
sS'C2N2+'
p73
(F2.6715360000000001e-18
F1.3357680000000001e-18
tp74
sS'C5H4N+'
p75
(F4.3514019999999998e-12
F2.1757009999999999e-12
tp76
sS'HSiO2+'
p77
(F1.117709e-15
F5.5885449999999998e-16
tp78
sS'SiF+'
p79
(F2.5929209999999999e-16
F1.2964604999999999e-16
tp80
sS'CH3CHCH2'
p81
(F1.3880210000000001e-41
F6.9401050000000006e-42
tp82
sS'H2CCO'
p83
(F1.9273809999999999e-09
F9.6369049999999996e-10
tp84
sS'H2CCN'
p85
(F2.0221460000000001e-09
F1.011073e-09
tp86
sS'C3S+'
p87
(F1.7464940000000001e-12
F8.7324700000000003e-13
tp88
sS'SiNCH+'
p89
(F1.5242979999999999e-17
F7.6214899999999993e-18
tp90
sS'JF'
p91
(F1.392301e-17
F6.9615050000000002e-18
tp92
sS'NO2'
p93
(F1.384429e-44
F6.9221449999999999e-45
tp94
sS'c-C3H3+'
p95
(F3.1219729999999998e-10
F1.5609864999999999e-10
tp96
sS'C4P'
p97
(F2.9587429999999999e-14
F1.4793714999999999e-14
tp98
sS'C4S'
p99
(F2.403286e-11
F1.201643e-11
tp100
sS'JC7N'
p101
(F1.9895189999999998e-15
F9.9475949999999991e-16
tp102
sS'CH3CNH+'
p103
(F7.198255e-12
F3.5991275e-12
tp104
sS'JC7H'
p105
(F3.8867900000000002e-16
F1.9433950000000001e-16
tp106
sS'SiC2H+'
p107
(F2.9901589999999998e-13
F1.4950794999999999e-13
tp108
sS'SiH5+'
p109
(F4.2571190000000002e-15
F2.1285595000000001e-15
tp110
sS'C4N'
p111
(F6.0277460000000004e-09
F3.0138730000000002e-09
tp112
sS'H2O+'
p113
(F5.5052270000000003e-15
F2.7526135000000001e-15
tp114
sS'HC3NH+'
p115
(F3.0918609999999999e-10
F1.5459305e-10
tp116
sS'JC9N'
p117
(F1.4557280000000001e-15
F7.2786400000000003e-16
tp118
sS'HCS'
p119
(F4.3724650000000001e-11
F2.1862325000000001e-11
tp120
sS'HCP'
p121
(F1.3567899999999999e-12
F6.7839499999999996e-13
tp122
sS'H3O+'
p123
(F3.9345790000000001e-10
F1.9672895e-10
tp124
sS'JC9H'
p125
(F2.9805560000000001e-16
F1.490278e-16
tp126
sS'C2S+'
p127
(F9.9610239999999994e-13
F4.9805119999999997e-13
tp128
sS'PC2H3+'
p129
(F3.1774409999999998e-17
F1.5887204999999999e-17
tp130
sS'CH2CCH'
p131
(F5.2190429999999995e-10
F2.6095214999999998e-10
tp132
sS'C4-'
p133
(F2.226478e-10
F1.113239e-10
tp134
sS'CH3CHO'
p135
(F4.0144199999999998e-12
F2.0072099999999999e-12
tp136
sS'H3SiO+'
p137
(F2.6661630000000002e-15
F1.3330815000000001e-15
tp138
sS'HCN'
p139
(F6.0323669999999999e-08
F3.0161834999999999e-08
tp140
sS'HCO'
p141
(F1.8883880000000001e-09
F9.4419400000000006e-10
tp142
sS'C4+'
p143
(F4.6701770000000002e-15
F2.3350885000000001e-15
tp144
sS'CH3NH2+'
p145
(F6.1970429999999998e-14
F3.0985214999999999e-14
tp146
sS'CH3C7N'
p147
(F3.6438089999999998e-12
F1.8219044999999999e-12
tp148
sS'JSiCH3'
p149
(F5.342985e-13
F2.6714925e-13
tp150
sS'JSiCH2'
p151
(F2.0141870000000001e-11
F1.0070935000000001e-11
tp152
sS'JCH3C3N'
p153
(F1.467086e-10
F7.3354299999999998e-11
tp154
sS'C5H2+'
p155
(F2.402587e-11
F1.2012935e-11
tp156
sS'HCl'
p157
(F2.7444070000000001e-11
F1.3722035000000001e-11
tp158
sS'CH3OCH3'
p159
(F6.8470949999999997e-15
F3.4235474999999998e-15
tp160
sS'C4H2+'
p161
(F7.9236440000000002e-11
F3.9618220000000001e-11
tp162
sS'SiNC+'
p163
(F4.0778389999999997e-14
F2.0389194999999999e-14
tp164
sS'HNCO'
p165
(F9.8366859999999999e-12
F4.9183429999999999e-12
tp166
sS'S2'
p167
(F6.5084940000000002e-12
F3.2542470000000001e-12
tp168
sS'CH3OH2+'
p169
(F1.6664280000000001e-13
F8.3321400000000005e-14
tp170
sS'JSi'
p171
(F4.3796930000000002e-17
F2.1898465000000001e-17
tp172
sS'S+'
p173
(F8.7290309999999998e-12
F4.3645154999999999e-12
tp174
sS'S-'
p175
(F4.240282e-17
F2.120141e-17
tp176
sS'SiC2CH3'
p177
(F1.565214e-11
F7.82607e-12
tp178
sS'CCP+'
p179
(F3.4099290000000002e-16
F1.7049645000000001e-16
tp180
sS'C11+'
p181
(F5.1442479999999999e-13
F2.5721239999999999e-13
tp182
sS'C2H5OH2+'
p183
(F1.921749e-14
F9.6087449999999999e-15
tp184
sS'JHF'
p185
(F5.9671670000000001e-09
F2.9835835e-09
tp186
sS'Si'
p187
(F3.1770760000000003e-11
F1.5885380000000002e-11
tp188
sS'CNC+'
p189
(F1.466339e-11
F7.3316949999999999e-12
tp190
sS'SiH2'
p191
(F4.3605919999999999e-14
F2.180296e-14
tp192
sS'Fe'
p193
(F8.174208e-10
F4.087104e-10
tp194
sS'CH3COCH3'
p195
(F2.0208549999999999e-16
F1.0104275e-16
tp196
sS'Jl-SiC3'
p197
(F1.617511e-12
F8.0875550000000001e-13
tp198
sS'F'
(F1.8738359999999999e-14
F9.3691799999999997e-15
tp199
sS'C3O+'
p200
(F6.1462640000000002e-14
F3.0731320000000001e-14
tp201
sS'ClO+'
p202
(F5.5308280000000004e-48
F2.7654140000000002e-48
tp203
sS'CH3OH+'
p204
(F8.6342800000000002e-14
F4.3171400000000001e-14
tp205
sS'JS2'
p206
(F1.4787299999999999e-12
F7.3936499999999995e-13
tp207
sS'CH2CN+'
p208
(F1.4403679999999999e-12
F7.2018399999999995e-13
tp209
sS'NH2CH2O+'
p210
(F4.4142959999999999e-13
F2.2071479999999999e-13
tp211
sS'JSiH'
p212
(F4.3555149999999997e-17
F2.1777574999999999e-17
tp213
sS'JCH2CHCN'
p214
(F3.5676429999999999e-10
F1.7838215e-10
tp215
sS'HNC+'
p216
(F2.1838929999999999e-16
F1.0919464999999999e-16
tp217
sS'JH2CSiCH'
p218
(F1.7866590000000001e-11
F8.9332950000000007e-12
tp219
sS'C6H3'
p220
(F4.0707720000000002e-13
F2.0353860000000001e-13
tp221
sS'SO'
p222
(F3.272195e-09
F1.6360975e-09
tp223
sS'C4H5+'
p224
(F4.427638e-13
F2.213819e-13
tp225
sS'C6H2'
p226
(F5.4732209999999997e-08
F2.7366104999999999e-08
tp227
sS'F+'
p228
(F1.9916789999999998e-18
F9.9583949999999991e-19
tp229
sS'JHPO'
p230
(F1.082788e-13
F5.4139399999999998e-14
tp231
sS'HCOOCH3'
p232
(F4.1620199999999998e-13
F2.0810099999999999e-13
tp233
sS'C7H2+'
p234
(F1.4905340000000002e-11
F7.4526700000000008e-12
tp235
sS'CF+'
p236
(F4.2712220000000001e-13
F2.135611e-13
tp237
sS'JNC4N'
p238
(F5.695111e-08
F2.8475555e-08
tp239
sS'JCH3C7N'
p240
(F7.6885990000000004e-12
F3.8442995000000002e-12
tp241
sS'PN+'
p242
(F3.8531840000000001e-15
F1.926592e-15
tp243
sS'C4P+'
p244
(F2.2477459999999999e-18
F1.1238729999999999e-18
tp245
sS'C9H-'
p246
(F3.7141600000000001e-10
F1.8570800000000001e-10
tp247
sS'JH2O'
p248
(F5.9789050000000003e-05
F2.9894525000000002e-05
tp249
sS'l-SiC3'
p250
(F9.7236160000000002e-13
F4.8618080000000001e-13
tp251
sS'JC3N'
p252
(F1.8350700000000001e-15
F9.1753500000000003e-16
tp253
sS'C9H+'
p254
(F1.5580820000000001e-11
F7.7904100000000005e-12
tp255
sS'NC6N'
p256
(F2.193342e-08
F1.096671e-08
tp257
sS'HNO+'
p258
(F8.5706629999999999e-13
F4.2853314999999999e-13
tp259
sS'HS+'
p260
(F7.0604200000000003e-12
F3.5302100000000002e-12
tp261
sS'C9H4'
p262
(F2.6716429999999998e-12
F1.3358214999999999e-12
tp263
sS'JC3S'
p264
(F1.066323e-09
F5.3316150000000001e-10
tp265
sS'C9H2'
p266
(F3.612477e-08
F1.8062385e-08
tp267
sS'C9H3'
p268
(F2.9331100000000001e-13
F1.4665550000000001e-13
tp269
sS'C8H5+'
p270
(F1.2696020000000001e-13
F6.3480100000000005e-14
tp271
sS'l-C3H3+'
p272
(F2.6989499999999998e-10
F1.3494749999999999e-10
tp273
sS'JNH2CHO'
p274
(F6.8042100000000002e-11
F3.4021050000000001e-11
tp275
sS'H2CO+'
p276
(F4.3849389999999999e-12
F2.1924695e-12
tp277
sS'C8H4'
p278
(F5.1774170000000003e-12
F2.5887085000000001e-12
tp279
sS'JC9H4'
p280
(F1.274493e-08
F6.3724650000000001e-09
tp281
sS'NH+'
p282
(F5.6537799999999999e-16
F2.82689e-16
tp283
sS'JHCOOH'
p284
(F2.9715230000000001e-10
F1.4857615000000001e-10
tp285
sS'JC8H2'
p286
(F1.494602e-09
F7.47301e-10
tp287
sS'COOCH4+'
p288
(F3.0210679999999998e-16
F1.5105339999999999e-16
tp289
sS'NH3'
p290
(F2.0186380000000002e-08
F1.0093190000000001e-08
tp291
sS'JC8H3'
p292
(F2.4178770000000001e-14
F1.2089385000000001e-14
tp293
sS'H3S+'
p294
(F2.4318900000000001e-11
F1.2159450000000001e-11
tp295
sS'C9H3+'
p296
(F7.7668480000000003e-11
F3.8834240000000002e-11
tp297
sS'HNSi+'
p298
(F1.581686e-19
F7.9084300000000001e-20
tp299
sS'JC2'
p300
(F3.3850450000000002e-15
F1.6925225000000001e-15
tp301
sS'SiC4'
p302
(F5.48637e-15
F2.743185e-15
tp303
sS'JSiNC'
p304
(F6.9045050000000001e-14
F3.4522525000000001e-14
tp305
sS'JC3'
p306
(F2.22108e-21
F1.11054e-21
tp307
sS'SiNC'
p308
(F6.3768419999999997e-16
F3.1884209999999999e-16
tp309
sS'HC3S+'
p310
(F9.3084150000000008e-12
F4.6542075000000004e-12
tp311
sS'SiC+'
p312
(F3.6003890000000001e-20
F1.8001945e-20
tp313
sS'HC6N'
p314
(F6.0650870000000001e-10
F3.0325435e-10
tp315
sS'C3-'
p316
(F1.9120870000000001e-12
F9.5604350000000003e-13
tp317
sS'C3+'
p318
(F3.4730420000000002e-15
F1.7365210000000001e-15
tp319
sS'C7H2N+'
p320
(F3.7980550000000002e-10
F1.8990275000000001e-10
tp321
sS'JC9'
p322
(F2.8661039999999998e-17
F1.4330519999999999e-17
tp323
sS'JCH2PH'
p324
(F4.3368040000000001e-16
F2.168402e-16
tp325
sS'H2C3O+'
p326
(F1.9110889999999999e-16
F9.5554449999999995e-17
tp327
sS'C6H2+'
p328
(F4.7468139999999998e-11
F2.3734069999999999e-11
tp329
sS'CH+'
p330
(F1.5040140000000001e-16
F7.5200700000000004e-17
tp331
sS'JFe'
p332
(F3.8728179999999998e-16
F1.9364089999999999e-16
tp333
sS'CH2'
p334
(F3.8532520000000002e-10
F1.9266260000000001e-10
tp335
sS'CH3'
p336
(F3.5992029999999999e-09
F1.7996014999999999e-09
tp337
sS'C2H5+'
p338
(F1.2411340000000001e-12
F6.2056700000000004e-13
tp339
sS'C2H5OH+'
p340
(F2.2914339999999999e-16
F1.145717e-16
tp341
sS'JOH'
p342
(F1.319202e-12
F6.5960100000000001e-13
tp343
sS'JO2'
p344
(F2.194952e-09
F1.097476e-09
tp345
sS'JNO2'
p346
(F9.4081789999999997e-41
F4.7040894999999998e-41
tp347
sS'C4N+'
p348
(F2.718285e-15
F1.3591425e-15
tp349
sS'CH4+'
p350
(F1.630706e-15
F8.1535299999999998e-16
tp351
sS'HC4N+'
p352
(F8.3457519999999995e-26
F4.1728759999999998e-26
tp353
sS'JC3P'
p354
(F4.339532e-14
F2.169766e-14
tp355
sS'C2N+'
p356
(F7.7327060000000003e-16
F3.8663530000000002e-16
tp357
sS'JSiC4H'
p358
(F3.009838e-10
F1.504919e-10
tp359
sS'JHCCSi'
p360
(F2.7973749999999999e-10
F1.3986874999999999e-10
tp361
sS'P+'
p362
(F9.4192230000000003e-15
F4.7096115000000001e-15
tp363
sS'HC2N+'
p364
(F1.423785e-11
F7.1189250000000002e-12
tp365
sS'C3O'
p366
(F9.5157619999999994e-11
F4.7578809999999997e-11
tp367
sS'C3N'
p368
(F3.7155580000000001e-09
F1.8577790000000001e-09
tp369
sS'Mg+'
p370
(F5.4252620000000002e-12
F2.7126310000000001e-12
tp371
sS'HCOOH'
p372
(F1.5086479999999999e-10
F7.5432399999999994e-11
tp373
sS'H3C7N+'
p374
(F3.683641e-13
F1.8418205e-13
tp375
sS'C3P'
p376
(F6.0770780000000001e-14
F3.038539e-14
tp377
sS'C3S'
p378
(F4.6275909999999998e-10
F2.3137954999999999e-10
tp379
sS'JC8H'
p380
(F1.1911070000000001e-15
F5.9555350000000004e-16
tp381
sS'PC4H+'
p382
(F4.5168190000000003e-16
F2.2584095000000001e-16
tp383
sS'PC2H2+'
p384
(F9.6630500000000003e-16
F4.8315250000000002e-16
tp385
sS'HSO2+'
p386
(F6.0546129999999997e-13
F3.0273064999999998e-13
tp387
sS'OCN'
p388
(F5.0540609999999997e-09
F2.5270304999999999e-09
tp389
sS'JHCO'
p390
(F1.7880140000000001e-12
F8.9400700000000003e-13
tp391
sS'JHCN'
p392
(F4.3375820000000002e-07
F2.1687910000000001e-07
tp393
sS'c-C3H2'
p394
(F1.8560860000000002e-08
F9.2804300000000008e-09
tp395
sS'JHCS'
p396
(F1.0396760000000001e-15
F5.1983800000000005e-16
tp397
sS'SiN+'
p398
(F7.5052929999999996e-15
F3.7526464999999998e-15
tp399
sS'JHCP'
p400
(F2.3425939999999999e-12
F1.171297e-12
tp401
sS'OCS'
p402
(F1.5368569999999999e-10
F7.6842849999999994e-11
tp403
sS'HCCP'
p404
(F1.267299e-13
F6.336495e-14
tp405
sS'CH3C6H'
p406
(F4.0595909999999998e-10
F2.0297954999999999e-10
tp407
sS'CS+'
p408
(F2.747373e-17
F1.3736865e-17
tp409
sS'JHCl'
p410
(F8.1308889999999999e-10
F4.0654445e-10
tp411
sS'SiC3H'
p412
(F4.1461130000000001e-12
F2.0730565000000001e-12
tp413
sS'JHOOH'
p414
(F1.6725339999999998e-08
F8.3626699999999992e-09
tp415
sS'JH2CN'
p416
(F1.839944e-16
F9.1997200000000002e-17
tp417
sS'CH3+'
p418
(F7.7773999999999996e-12
F3.8886999999999998e-12
tp419
sS'e-'
p420
(F3.6254609999999999e-09
F1.8127305e-09
tp421
sS'C4S+'
p422
(F1.133196e-13
F5.66598e-14
tp423
sS'SiCH2'
p424
(F6.9805900000000002e-12
F3.4902950000000001e-12
tp425
sS'SiCH3'
p426
(F5.432373e-14
F2.7161865e-14
tp427
sS'JOCS'
p428
(F6.9069379999999994e-17
F3.4534689999999997e-17
tp429
sS'HO2+'
p430
(F2.1786129999999999e-16
F1.0893065e-16
tp431
sS'C9H3N+'
p432
(F1.3455729999999999e-13
F6.7278649999999995e-14
tp433
sS'ClO'
p434
(F1.008719e-44
F5.043595e-45
tp435
sS'JOCN'
p436
(F2.5568949999999999e-15
F1.2784475e-15
tp437
sS'PNH3+'
p438
(F1.9595679999999999e-16
F9.7978399999999996e-17
tp439
sS'JC9H3'
p440
(F1.2669579999999999e-14
F6.3347899999999997e-15
tp441
sS'JSiN'
p442
(F3.454419e-12
F1.7272095e-12
tp443
sS'C7H3'
p444
(F5.126153e-12
F2.5630765e-12
tp445
sS'C7H4'
p446
(F7.5249799999999993e-12
F3.7624899999999997e-12
tp447
sS'JSiC'
p448
(F6.0205529999999999e-12
F3.0102765e-12
tp449
sS'NCO+'
p450
(F6.9606959999999996e-16
F3.4803479999999998e-16
tp451
sS'H2C4N+'
p452
(F1.341038e-25
F6.7051900000000001e-26
tp453
sS'C7H+'
p454
(F1.8464229999999999e-11
F9.2321149999999996e-12
tp455
sS'JC9H2'
p456
(F7.8927669999999997e-10
F3.9463834999999998e-10
tp457
sS'C9HN+'
p458
(F2.6020619999999999e-13
F1.3010309999999999e-13
tp459
sS'JSiS'
p460
(F4.566283e-14
F2.2831415e-14
tp461
sS'JC8H4'
p462
(F2.351168e-08
F1.175584e-08
tp463
sS'C7H-'
p464
(F5.5723570000000001e-10
F2.7861785e-10
tp465
sS'NC8N'
p466
(F1.561431e-08
F7.8071549999999998e-09
tp467
sS'HCOOH+'
p468
(F2.1258459999999999e-14
F1.0629229999999999e-14
tp469
sS'JSiO'
p470
(F5.9756250000000002e-10
F2.9878125000000001e-10
tp471
sS'NH2'
p472
(F6.2216960000000001e-09
F3.1108480000000001e-09
tp473
sS'CH3C3'
p474
(F7.2867720000000005e-10
F3.6433860000000002e-10
tp475
sS'C6H5+'
p476
(F5.0842410000000004e-16
F2.5421205000000002e-16
tp477
sS'C7+'
p478
(F9.5289610000000007e-16
F4.7644805000000004e-16
tp479
sS'C7-'
p480
(F9.3494430000000003e-11
F4.6747215000000002e-11
tp481
sS'H2+'
p482
(F5.7925939999999998e-14
F2.8962969999999999e-14
tp483
sS'PH2+'
p484
(F3.7453000000000003e-15
F1.8726500000000002e-15
tp485
sS'CH3NH3+'
p486
(F1.208704e-12
F6.0435199999999999e-13
tp487
sS'JHC9N'
p488
(F4.6258910000000004e-09
F2.3129455000000002e-09
tp489
sS'SiC4+'
p490
(F2.3088910000000001e-15
F1.1544455000000001e-15
tp491
sS'NO+'
p492
(F6.5341669999999997e-13
F3.2670834999999998e-13
tp493
sS'HPN+'
p494
(F5.6165240000000001e-14
F2.808262e-14
tp495
sS'JH2CS'
p496
(F9.7661299999999997e-09
F4.8830649999999998e-09
tp497
sS'JC6H4'
p498
(F3.0238850000000002e-08
F1.5119425000000001e-08
tp499
sS'JC6H6'
p500
(F6.1746679999999995e-10
F3.0873339999999998e-10
tp501
sS'JH2CO'
p502
(F4.6633309999999997e-06
F2.3316654999999998e-06
tp503
sS'JC6H2'
p504
(F1.5509499999999999e-09
F7.7547499999999995e-10
tp505
sS'JC6H3'
p506
(F2.5672909999999999e-14
F1.2836455e-14
tp507
sS'NO2+'
p508
(F2.5308809999999999e-19
F1.2654404999999999e-19
tp509
sS'CCl+'
p510
(F8.9610749999999994e-15
F4.4805374999999997e-15
tp511
sS'C5H3+'
p512
(F1.4716999999999999e-10
F7.3584999999999997e-11
tp513
sS'C3H4+'
p514
(F8.0059770000000005e-14
F4.0029885000000003e-14
tp515
sS'JHNCO'
p516
(F2.8662970000000002e-09
F1.4331485000000001e-09
tp517
sS'SiH2+'
p518
(F6.8540810000000002e-15
F3.4270405000000001e-15
tp519
sS'XH'
p520
(F9.9999999999999993e-41
F4.9999999999999996e-41
tp521
sS'HCCSi'
p522
(F1.8675e-10
F9.3375000000000001e-11
tp523
sS'HNCCC'
p524
(F7.593965e-10
F3.7969825e-10
tp525
sS'Cl+'
p526
(F1.7197620000000001e-19
F8.5988100000000003e-20
tp527
sS'SiC4H'
p528
(F5.2879579999999998e-10
F2.6439789999999999e-10
tp529
sS'NH2CNH+'
p530
(F3.258886e-46
F1.629443e-46
tp531
sS'NS'
p532
(F1.2938159999999999e-10
F6.4690799999999995e-11
tp533
sS'JHNCCC'
p534
(F6.5460460000000001e-10
F3.2730230000000001e-10
tp535
sS'JC4H2'
p536
(F2.9323129999999999e-09
F1.4661565e-09
tp537
sS'H2S'
p538
(F1.091587e-08
F5.4579349999999999e-09
tp539
sS'JC6H'
p540
(F1.39633e-15
F6.9816499999999998e-16
tp541
sS'C7H'
p542
(F9.8242080000000005e-10
F4.9121040000000003e-10
tp543
sS'H2O'
p544
(F9.5768159999999999e-08
F4.788408e-08
tp545
sS'NaH2+'
p546
(F8.3322439999999996e-17
F4.1661219999999998e-17
tp547
sS'C7N'
p548
(F6.006669e-09
F3.0033345e-09
tp549
sS'SiC4H+'
p550
(F3.047085e-16
F1.5235425e-16
tp551
sS'JCH3OH'
p552
(F4.0723989999999999e-07
F2.0361995e-07
tp553
sS'l-SiC3+'
p554
(F4.9787130000000001e-14
F2.4893565e-14
tp555
sS'JCH3CCH'
p556
(F8.9917769999999996e-06
F4.4958884999999998e-06
tp557
sS'CH2CHCN'
p558
(F6.2903090000000003e-10
F3.1451545000000001e-10
tp559
sS'JFeH'
p560
(F2.175755e-09
F1.0878775e-09
tp561
sS'Na'
p562
(F2.70747e-10
F1.353735e-10
tp563
sS'JHS'
p564
(F1.811737e-12
F9.058685e-13
tp565
sS'HSiS+'
p566
(F1.067639e-16
F5.3381949999999998e-17
tp567
sS'NH2CHO'
p568
(F6.9479820000000002e-11
F3.4739910000000001e-11
tp569
sS'HCNCC'
p570
(F3.433795e-10
F1.7168975e-10
tp571
sS'HC7N+'
p572
(F2.9046640000000002e-13
F1.4523320000000001e-13
tp573
sS'Jc-SiC2'
p574
(F2.6470690000000001e-11
F1.3235345e-11
tp575
sS'JHC3N'
p576
(F4.592852e-08
F2.296426e-08
tp577
sS'C10H-'
p578
(F4.5186810000000001e-11
F2.2593405000000001e-11
tp579
sS'c-SiC2'
p580
(F3.70748e-11
F1.85374e-11
tp581
sS'JHSSH'
p582
(F1.9328749999999998e-11
F9.6643749999999992e-12
tp583
sS'C10H+'
p584
(F5.1801470000000002e-12
F2.5900735000000001e-12
tp585
sS'HC9N'
p586
(F9.0145300000000007e-09
F4.5072650000000004e-09
tp587
sS'C4H4+'
p588
(F8.9307999999999997e-13
F4.4653999999999998e-13
tp589
sS'C10H2'
p590
(F1.172803e-08
F5.8640150000000002e-09
tp591
sS'C9+'
p592
(F4.0203920000000003e-15
F2.0101960000000001e-15
tp593
sS'C10H2+'
p594
(F2.4972299999999999e-12
F1.2486149999999999e-12
tp595
sS'C9-'
p596
(F1.238119e-10
F6.1905949999999998e-11
tp597
sS'C7H3+'
p598
(F1.1930429999999999e-10
F5.9652149999999996e-11
tp599
sS'C5H2'
p600
(F5.8493340000000002e-08
F2.9246670000000001e-08
tp601
sS'C5H3'
p602
(F5.1751269999999999e-11
F2.5875634999999999e-11
tp603
sS'C5H4'
p604
(F1.5618979999999999e-11
F7.8094899999999997e-12
tp605
sS'GRAIN0'
p606
(F1.125824e-14
F5.6291200000000002e-15
tp607
sS'JC7H4'
p608
(F2.858127e-08
F1.4290635e-08
tp609
sS'C3H3N+'
p610
(F8.8517890000000004e-13
F4.4258945000000002e-13
tp611
sS'JC7H3'
p612
(F2.3264209999999999e-14
F1.1632105e-14
tp613
sS'CH3CO+'
p614
(F9.3110960000000007e-12
F4.6555480000000003e-12
tp615
sS'JC5'
p616
(F1.9238919999999998e-15
F9.6194599999999991e-16
tp617
sS'SiC2H3+'
p618
(F3.0728299999999999e-13
F1.536415e-13
tp619
sS'PO+'
p620
(F7.1337760000000005e-15
F3.5668880000000002e-15
tp621
sS'GRAIN-'
p622
(F1.7858660000000001e-12
F8.9293300000000003e-13
tp623
sS'PCH2+'
p624
(F4.9476199999999997e-15
F2.4738099999999999e-15
tp625
sS'C9H'
p626
(F7.9893610000000003e-10
F3.9946805000000002e-10
tp627
sS'JHCSi'
p628
(F2.6223270000000001e-12
F1.3111635e-12
tp629
sS'C9N'
p630
(F4.9041869999999997e-09
F2.4520934999999998e-09
tp631
sS'H2CS'
p632
(F3.7600889999999999e-10
F1.8800444999999999e-10
tp633
sS'JPH'
p634
(F6.9907800000000004e-13
F3.4953900000000002e-13
tp635
sS'JHNC'
p636
(F1.9206669999999999e-07
F9.6033349999999996e-08
tp637
sS'JPO'
p638
(F3.8319679999999999e-13
F1.915984e-13
tp639
sS'JPN'
p640
(F1.4079400000000001e-11
F7.0397000000000004e-12
tp641
sS'JSiC6H'
p642
(F2.263788e-10
F1.131894e-10
tp643
sS'JHNO'
p644
(F1.061512e-08
F5.3075599999999998e-09
tp645
sS'H2CO'
p646
(F9.4241729999999994e-09
F4.7120864999999997e-09
tp647
sS'H2CN'
p648
(F2.9625190000000002e-10
F1.4812595000000001e-10
tp649
sS'l-C3H2'
p650
(F8.3278650000000002e-09
F4.1639325000000001e-09
tp651
sS'PH+'
p652
(F1.6580969999999999e-14
F8.2904849999999997e-15
tp653
sS'C8H4+'
p654
(F8.4994020000000003e-12
F4.2497010000000001e-12
tp655
sS'JSiC3H5'
p656
(F1.6548160000000001e-40
F8.2740800000000005e-41
tp657
sS'CH2PH'
p658
(F1.392622e-15
F6.9631099999999999e-16
tp659
sS'l-C3H2+'
p660
(F1.263099e-10
F6.3154949999999998e-11
tp661
sS'JP'
p662
(F1.3965919999999999e-10
F6.9829599999999995e-11
tp663
sS'JS'
p664
(F1.385024e-14
F6.92512e-15
tp665
sS'JHCOOCH3'
p666
(F9.4269079999999995e-13
F4.7134539999999998e-13
tp667
sS'JN'
p668
(F4.6216499999999998e-13
F2.3108249999999999e-13
tp669
sS'JO'
p670
(F4.6212190000000004e-13
F2.3106095000000002e-13
tp671
sS'JH'
p672
(F2.094412e-13
F1.047206e-13
tp673
sS'HCl+'
p674
(F3.5706010000000002e-19
F1.7853005000000001e-19
tp675
sS'PH2'
p676
(F7.7831370000000001e-14
F3.8915685e-14
tp677
sS'C9H4+'
p678
(F1.777305e-12
F8.8865249999999998e-13
tp679
sS'CH2NH'
p680
(F1.227887e-10
F6.1394349999999998e-11
tp681
sS'JC'
p682
(F1.616479e-14
F8.0823949999999999e-15
tp683
sS'N2+'
p684
(F1.5524150000000001e-16
F7.7620750000000005e-17
tp685
sS'HSO+'
p686
(F2.016785e-11
F1.0083925e-11
tp687
sS'H3C4NH+'
p688
(F1.054635e-13
F5.273175e-14
tp689
sS'C3H6OH+'
p690
(F4.7014710000000003e-18
F2.3507355000000001e-18
tp691
sS'HSS'
p692
(F1.1942540000000001e-11
F5.9712700000000003e-12
tp693
sS'JNH2'
p694
(F1.6709000000000001e-12
F8.3545000000000004e-13
tp695
sS'NH2CN'
p696
(F1.9774939999999999e-44
F9.8874699999999996e-45
tp697
sS'JNH3'
p698
(F3.7068559999999997e-05
F1.8534279999999998e-05
tp699
sS'SiH3+'
p700
(F1.231031e-15
F6.1551550000000001e-16
tp701
sS'MgH'
p702
(F8.0221259999999996e-13
F4.0110629999999998e-13
tp703
sS'N2O'
p704
(F8.8014939999999997e-11
F4.4007469999999998e-11
tp705
sS'HC5N+'
p706
(F1.22849e-13
F6.1424500000000002e-14
tp707
sS'H'
(F4.7032699999999999e-06
F2.351635e-06
tp708
sS'H2CCO+'
p709
(F7.6001280000000001e-13
F3.8000640000000001e-13
tp710
sS'HC3N+'
p711
(F9.8068769999999999e-14
F4.9034385e-14
tp712
sS'C2+'
p713
(F2.0092470000000001e-16
F1.0046235000000001e-16
tp714
sS'H3C4N+'
p715
(F1.3410249999999999e-25
F6.7051249999999997e-26
tp716
sS'JH2CCN'
p717
(F1.1603420000000001e-15
F5.8017100000000004e-16
tp718
sS'JH2CCO'
p719
(F8.6161080000000005e-09
F4.3080540000000003e-09
tp720
sS'C4H'
p721
(F1.040019e-08
F5.2000949999999999e-09
tp722
sS'CH3C5N'
p723
(F3.7563719999999996e-12
F1.8781859999999998e-12
tp724
sS'C2H4+'
p725
(F1.455311e-11
F7.2765549999999998e-12
tp726
sS'JCH3C6H'
p727
(F1.6623e-10
F8.3115000000000002e-11
tp728
sS'JSiC2CH3'
p729
(F1.052957e-11
F5.2647850000000002e-12
tp730
sS'JCH3COCH3'
p731
(F5.1357399999999995e-16
F2.5678699999999998e-16
tp732
sS'H2CS+'
p733
(F9.5553260000000001e-14
F4.777663e-14
tp734
sS'JC2H2'
p735
(F2.4835839999999998e-09
F1.2417919999999999e-09
tp736
sS'NH3+'
p737
(F4.6537139999999999e-12
F2.3268569999999999e-12
tp738
sS'JCH3CN'
p739
(F1.6796959999999999e-08
F8.3984799999999993e-09
tp740
sS'C5H4+'
p741
(F6.5328530000000005e-13
F3.2664265000000002e-13
tp742
sS'CH2OH'
p743
(F1.9033069999999999e-11
F9.5165349999999997e-12
tp744
sS'H3C6NH+'
p745
(F3.70421e-14
F1.852105e-14
tp746
sS'C2H4O+'
p747
(F2.5560079999999999e-15
F1.2780039999999999e-15
tp748
sS'C3H+'
p749
(F1.676089e-12
F8.380445e-13
tp750
sS'JC10H2'
p751
(F4.1518070000000002e-09
F2.0759035000000001e-09
tp752
sS'CH3CCH'
p753
(F2.59475e-09
F1.297375e-09
tp754
sS'NaOH'
p755
(F6.7689749999999997e-16
F3.3844874999999999e-16
tp756
sS'C2H3+'
p757
(F1.5903179999999998e-11
F7.9515899999999992e-12
tp758
sS'HCP+'
p759
(F2.3603160000000001e-20
F1.180158e-20
tp760
sS'CH3CN'
p761
(F2.1256770000000001e-10
F1.0628385000000001e-10
tp762
sS'CH3CHOH+'
p763
(F2.4903229999999999e-14
F1.2451614999999999e-14
tp764
sS'CH2CHCHCH2'
p765
(F2.7795629999999999e-41
F1.3897815e-41
tp766
sS'PH'
p767
(F1.6677490000000001e-12
F8.3387450000000003e-13
tp768
sS'PN'
p769
(F5.1596870000000001e-12
F2.5798435e-12
tp770
sS'PO'
p771
(F8.551277e-13
F4.2756385e-13
tp772
sS'C'
(F1.0650559999999999e-08
F5.3252799999999996e-09
tp773
sS'JC2H3'
p774
(F4.8720389999999999e-14
F2.4360194999999999e-14
tp775
sS'C2H+'
p776
(F3.1299530000000002e-16
F1.5649765000000001e-16
tp777
sS'JC2H5'
p778
(F5.4625030000000002e-14
F2.7312515000000001e-14
tp779
sS'JC2H6'
p780
(F9.3279530000000001e-08
F4.6639765000000001e-08
tp781
sS'JSiC4'
p782
(F1.0895769999999999e-13
F5.4478849999999997e-14
tp783
sS'SiO2'
p784
(F6.8866840000000002e-13
F3.4433420000000001e-13
tp785
sS'H2COH+'
p786
(F4.9438999999999997e-11
F2.4719499999999999e-11
tp787
sS'JN2O'
p788
(F2.070857e-11
F1.0354285e-11
tp789
sS'S'
(F2.0045219999999999e-08
F1.002261e-08
tp790
sS'JCH2CHC2H'
p791
(F8.8180089999999995e-08
F4.4090044999999998e-08
tp792
sS'H2NC+'
p793
(F1.3378690000000001e-13
F6.6893450000000003e-14
tp794
sS'C2H6'
p795
(F1.050495e-10
F5.2524749999999999e-11
tp796
sS'C2H5'
p797
(F1.5003960000000001e-12
F7.5019800000000003e-13
tp798
sS'C2H4'
p799
(F3.6550619999999998e-09
F1.8275309999999999e-09
tp800
sS'C2H3'
p801
(F2.2279420000000001e-10
F1.113971e-10
tp802
sS'C2H2'
p803
(F6.2101809999999995e-08
F3.1050904999999997e-08
tp804
sS'C3H3NH+'
p805
(F1.9379779999999998e-12
F9.6898899999999992e-13
tp806
sS'PNH2+'
p807
(F3.6317719999999998e-16
F1.8158859999999999e-16
tp808
sS'Jl-C3H'
p809
(F1.14309e-21
F5.7154500000000001e-22
tp810
sS'SiO+'
p811
(F1.251906e-18
F6.2595300000000001e-19
tp812
sS'JCH3C3'
p813
(F5.1070740000000003e-14
F2.5535370000000001e-14
tp814
sS'N2H+'
p815
(F2.102449e-10
F1.0512245e-10
tp816
sS'HSiNH+'
p817
(F3.6635469999999997e-14
F1.8317734999999999e-14
tp818
sS'JCH2CCH'
p819
(F1.6926210000000001e-12
F8.4631050000000004e-13
tp820
sS'JHC5N'
p821
(F1.125438e-08
F5.6271899999999999e-09
tp822
sS'CH2+'
p823
(F7.278565e-16
F3.6392825e-16
tp824
sS'HOC+'
p825
(F4.2422549999999998e-13
F2.1211274999999999e-13
tp826
sS'JCH3OCH3'
p827
(F5.183532e-14
F2.591766e-14
tp828
sS'HNC'
p829
(F3.7693630000000001e-08
F1.8846815000000001e-08
tp830
sS'JCH2CHCHCH2'
p831
(F1.6875e-40
F8.4375000000000002e-41
tp832
sS'C7H4+'
p833
(F1.4207309999999999e-12
F7.1036549999999996e-13
tp834
sS'JCH3CH2OH'
p835
(F7.8546259999999995e-13
F3.9273129999999998e-13
tp836
sS'N2'
p837
(F4.2061030000000001e-06
F2.1030515000000001e-06
tp838
sS'HNO'
p839
(F5.779942e-09
F2.889971e-09
tp840
sS'JSiH3'
p841
(F1.3184629999999999e-16
F6.5923149999999994e-17
tp842
sS'JSiH2'
p843
(F1.324316e-16
F6.6215799999999999e-17
tp844
sS'JSiH4'
p845
(F4.4374490000000003e-09
F2.2187245000000002e-09
tp846
sS'SiH4'
p847
(F5.550401e-12
F2.7752005e-12
tp848
sS'HNSi'
p849
(F9.2349180000000005e-12
F4.6174590000000002e-12
tp850
sS'SiH3'
p851
(F1.063438e-13
F5.3171900000000001e-14
tp852
sS'CH3O2+'
p853
(F1.260188e-12
F6.3009399999999998e-13
tp854
sS'C-'
p855
(F2.0907290000000001e-18
F1.0453645e-18
tp856
sS'JH2SiO'
p857
(F1.670035e-12
F8.3501749999999998e-13
tp858
sS'JC5H'
p859
(F4.2119490000000003e-15
F2.1059745000000002e-15
tp860
sS'JC5N'
p861
(F1.297647e-15
F6.4882350000000002e-16
tp862
sS'CH4'
p863
(F3.34305e-07
F1.671525e-07
tp864
sS'C9'
p865
(F9.0846560000000006e-11
F4.5423280000000003e-11
tp866
sS'C8'
p867
(F5.4571210000000002e-10
F2.7285605000000001e-10
tp868
sS'C6H'
p869
(F2.3220910000000001e-09
F1.1610455000000001e-09
tp870
sS'C3'
p871
(F1.0632729999999999e-06
F5.3163649999999997e-07
tp872
sS'C2'
p873
(F2.4760040000000002e-09
F1.2380020000000001e-09
tp874
sS'C7'
p875
(F7.0793100000000001e-11
F3.5396550000000001e-11
tp876
sS'C6'
p877
(F3.832137e-10
F1.9160685e-10
tp878
sS'C5'
p879
(F4.5232089999999998e-09
F2.2616044999999999e-09
tp880
sS'C4'
p881
(F4.2048230000000001e-09
F2.1024115e-09
tp882
sS'HC2S+'
p883
(F1.014916e-11
F5.07458e-12
tp884
sS'PC2H4+'
p885
(F3.0870090000000001e-18
F1.5435045e-18
tp886
sS'CH3NH2'
p887
(F1.6411949999999999e-10
F8.2059749999999997e-11
tp888
sS'CH'
p889
(F1.2424840000000001e-09
F6.2124200000000003e-10
tp890
sS'CO'
p891
(F1.8408400000000001e-05
F9.2042000000000007e-06
tp892
sS'CN'
p893
(F3.0116299999999999e-08
F1.505815e-08
tp894
sS'JSiC8H'
p895
(F2.187968e-10
F1.093984e-10
tp896
sS'C8H3+'
p897
(F3.0016049999999998e-11
F1.5008024999999999e-11
tp898
sS'HC2O'
p899
(F1.8442860000000001e-14
F9.2214300000000004e-15
tp900
sS'JSO2'
p901
(F3.7785049999999998e-16
F1.8892524999999999e-16
tp902
sS'N'
(F5.26325e-07
F2.631625e-07
tp903
sS'HeH+'
p904
(F8.9986850000000009e-19
F4.4993425000000004e-19
tp905
sS'C6-'
p906
(F1.6588150000000001e-10
F8.2940750000000006e-11
tp907
sS'C6+'
p908
(F6.6581009999999997e-15
F3.3290504999999998e-15
tp909
sS'CS'
p910
(F1.5417990000000001e-09
F7.7089950000000004e-10
tp911
sS'HSSH'
p912
(F1.718598e-11
F8.5929900000000001e-12
tp913
sS'CP'
p914
(F4.3940410000000002e-13
F2.1970205000000001e-13
tp915
sS'HNS+'
p916
(F8.6061799999999998e-13
F4.3030899999999999e-13
tp917
sS'He+'
p918
(F7.8381149999999997e-11
F3.9190574999999998e-11
tp919
sS'CO2'
p920
(F2.1555190000000001e-08
F1.0777595000000001e-08
tp921
sS'JC2H4'
p922
(F1.4816479999999999e-10
F7.4082399999999994e-11
tp923
sS'HC4N'
p924
(F1.9187579999999999e-09
F9.5937899999999994e-10
tp925
sS'Cl'
p926
(F1.594093e-10
F7.9704650000000002e-11
tp927
sS'HPO+'
p928
(F7.5542629999999993e-15
F3.7771314999999996e-15
tp929
sS'CO+'
p930
(F1.485383e-16
F7.4269150000000002e-17
tp931
sS'C3H5+'
p932
(F6.0746550000000002e-12
F3.0373275000000001e-12
tp933
sS'PCH4+'
p934
(F3.415913e-17
F1.7079565e-17
tp935
sS'JMgH2'
p936
(F6.0341559999999997e-09
F3.0170779999999999e-09
tp937
sS'SiS+'
p938
(F1.25969e-22
F6.2984499999999998e-23
tp939
sS'JH2S'
p940
(F2.7394389999999999e-08
F1.3697194999999999e-08
tp941
sS'JHC7H'
p942
(F2.3267909999999999e-14
F1.1633955e-14
tp943
sS'HOOH'
p944
(F1.991731e-10
F9.9586550000000001e-11
tp945
sS'JO3'
p946
(F1.334555e-13
F6.6727749999999998e-14
tp947
sS'JHC4N'
p948
(F2.7649999999999999e-09
F1.3824999999999999e-09
tp949
sS'JHC7N'
p950
(F6.7601990000000004e-09
F3.3800995000000002e-09
tp951
sS'C8H'
p952
(F2.581215e-09
F1.2906075e-09
tp953
sS'C11'
p954
(F5.0103679999999998e-11
F2.5051839999999999e-11
tp955
sS'C10'
p956
(F1.07579e-10
F5.3789499999999998e-11
tp957
sS'JC4'
p958
(F2.3260919999999999e-15
F1.163046e-15
tp959
sS'CH2NH2+'
p960
(F6.6526359999999999e-13
F3.326318e-13
tp961
sS'JC6'
p962
(F3.0168639999999999e-16
F1.5084319999999999e-16
tp963
sS'JC7'
p964
(F3.933823e-17
F1.9669115e-17
tp965
sS'JHe'
p966
(F5.1122909999999997e-21
F2.5561454999999999e-21
tp967
sS'C8H3'
p968
(F3.225323e-15
F1.6126615e-15
tp969
sS'C8H2'
p970
(F6.2597190000000002e-08
F3.1298595000000001e-08
tp971
sS'H3+'
p972
(F7.6024310000000001e-10
F3.8012155e-10
tp973
sS'NaH'
p974
(F4.9539480000000002e-14
F2.4769740000000001e-14
tp975
sS'OH+'
p976
(F1.1341979999999999e-15
F5.6709899999999997e-16
tp977
sS'JC8'
p978
(F1.826097e-16
F9.1304850000000001e-17
tp979
sS'C5H5+'
p980
(F2.4717980000000001e-12
F1.235899e-12
tp981
sS'C6H4+'
p982
(F3.8648180000000001e-12
F1.9324090000000001e-12
tp983
sS'PC4H2+'
p984
(F3.2988709999999999e-17
F1.6494354999999999e-17
tp985
sS'C8H-'
p986
(F3.9325979999999998e-10
F1.9662989999999999e-10
tp987
sS'C8H+'
p988
(F7.1259980000000002e-16
F3.5629990000000001e-16
tp989
sS'NS+'
p990
(F1.3553650000000001e-12
F6.7768250000000003e-13
tp991
sS'JCP'
p992
(F3.17601e-13
F1.588005e-13
tp993
sS'JCS'
p994
(F1.6334430000000002e-11
F8.1672150000000008e-12
tp995
sS'Na+'
p996
(F2.4427939999999998e-12
F1.2213969999999999e-12
tp997
sS'SO+'
p998
(F2.204886e-12
F1.102443e-12
tp999
sS'PC3H+'
p1000
(F3.4452949999999999e-15
F1.7226475e-15
tp1001
sS'SO2'
p1002
(F3.1311089999999999e-10
F1.5655545e-10
tp1003
sS'HPO'
p1004
(F2.7183000000000001e-13
F1.3591500000000001e-13
tp1005
sS'CH2Si+'
p1006
(F2.9450180000000002e-14
F1.4725090000000001e-14
tp1007
sS'c-C3H'
p1008
(F3.6213270000000001e-08
F1.8106635000000001e-08
tp1009
sS'NH4+'
p1010
(F6.8495769999999997e-11
F3.4247884999999999e-11
tp1011
sS'JCN'
p1012
(F5.2237810000000003e-14
F2.6118905000000002e-14
tp1013
sS'JCO'
p1014
(F5.5726339999999998e-05
F2.7863169999999999e-05
tp1015
sS'JCH'
p1016
(F1.724749e-14
F8.6237449999999999e-15
tp1017
sS'JNC8N'
p1018
(F5.5076529999999998e-09
F2.7538264999999999e-09
tp1019
sS'C4H7+'
p1020
(F7.8708809999999998e-16
F3.9354404999999999e-16
tp1021
sS'JH2'
p1022
(F4.8945050000000003e-05
F2.4472525000000002e-05
tp1023
sS'C10H3+'
p1024
(F2.8648890000000002e-12
F1.4324445000000001e-12
tp1025
sS'JCl'
p1026
(F9.4987940000000005e-17
F4.7493970000000002e-17
tp1027
sS'JHC8N'
p1028
(F2.2595489999999999e-10
F1.1297745e-10
tp1029
sS'C8+'
p1030
(F6.4686250000000006e-14
F3.2343125000000003e-14
tp1031
sS'C8-'
p1032
(F2.5248079999999999e-10
F1.2624039999999999e-10
tp1033
sS'O-'
p1034
(F8.3537219999999993e-21
F4.1768609999999996e-21
tp1035
sS'JCH3C5N'
p1036
(F2.2423110000000001e-11
F1.1211555e-11
tp1037
sS'O+'
p1038
(F6.2220610000000004e-17
F3.1110305000000002e-17
tp1039
sS'JNC6N'
p1040
(F1.1099270000000001e-08
F5.5496350000000003e-09
tp1041
sS'CH3CN+'
p1042
(F1.8323449999999999e-12
F9.1617249999999995e-13
tp1043
sS'HNCO+'
p1044
(F8.9892449999999995e-18
F4.4946224999999998e-18
tp1045
sS'CCP'
p1046
(F3.1102760000000002e-13
F1.5551380000000001e-13
tp1047
sS'CCS'
p1048
(F1.0334549999999999e-09
F5.1672749999999996e-10
tp1049
sS'CH3OH'
p1050
(F1.5945019999999999e-10
F7.9725099999999994e-11
tp1051
sS'NaH2O+'
p1052
(F3.3918939999999998e-17
F1.6959469999999999e-17
tp1053
sS'CCO'
p1054
(F4.9164689999999998e-12
F2.4582344999999999e-12
tp1055
sS'CCN'
p1056
(F1.5502819999999999e-08
F7.7514099999999994e-09
tp1057
sS'JCCl'
p1058
(F9.7052410000000005e-15
F4.8526205000000003e-15
tp1059
sS'CCH'
p1060
(F2.7091279999999999e-09
F1.354564e-09
tp1061
sS'SiC2H2+'
p1062
(F8.2105029999999999e-13
F4.1052515e-13
tp1063
sS'O3'
p1064
(F2.5076679999999999e-11
F1.2538339999999999e-11
tp1065
sS'O2'
p1066
(F7.1585030000000005e-08
F3.5792515000000003e-08
tp1067
sS'NC4N'
p1068
(F7.8994790000000006e-08
F3.9497395000000003e-08
tp1069
sS'JCCP'
p1070
(F3.4592799999999998e-13
F1.7296399999999999e-13
tp1071
sS'CH3C4H'
p1072
(F6.9130639999999995e-10
F3.4565319999999998e-10
tp1073
sS'JCCS'
p1074
(F1.773711e-09
F8.8685549999999999e-10
tp1075
sS'HC3N'
p1076
(F2.237888e-08
F1.118944e-08
tp1077
sS'JCCH'
p1078
(F6.675231e-15
F3.3376155e-15
tp1079
sS'CCl'
p1080
(F1.8382949999999999e-14
F9.1914749999999993e-15
tp1081
sS'HCO+'
p1082
(F2.0529649999999998e-09
F1.0264824999999999e-09
tp1083
sS'JCCN'
p1084
(F1.1197700000000001e-08
F5.5988500000000004e-09
tp1085
sS'JCCO'
p1086
(F2.5495040000000002e-18
F1.2747520000000001e-18
tp1087
sS'H2CCl+'
p1088
(F2.8297480000000001e-16
F1.4148740000000001e-16
tp1089
sS'OH-'
p1090
(F7.2027920000000005e-14
F3.6013960000000003e-14
tp1091
sS'JC3O'
p1092
(F5.1816289999999999e-10
F2.5908145e-10
tp1093
sS'JC10'
p1094
(F1.3947750000000001e-09
F6.9738750000000004e-10
tp1095
sS'JC11'
p1096
(F1.4586849999999999e-09
F7.2934249999999996e-10
tp1097
sS'C9H5+'
p1098
(F3.8508970000000001e-13
F1.9254485e-13
tp1099
sS'c-C3H2+'
p1100
(F2.6571390000000001e-10
F1.3285695e-10
tp1101
sS'H3S2+'
p1102
(F1.1849879999999999e-13
F5.9249399999999994e-14
tp1103
sS'SiH'
p1104
(F2.50136e-13
F1.25068e-13
tp1105
sS'OH'
p1106
(F2.524356e-08
F1.262178e-08
tp1107
sS'CH3OCH3+'
p1108
(F1.5879309999999999e-18
F7.9396549999999996e-19
tp1109
sS'HCCNC'
p1110
(F1.359181e-09
F6.7959049999999998e-10
tp1111
sS'SiN'
p1112
(F3.535332e-12
F1.767666e-12
tp1113
sS'H2S2+'
p1114
(F5.9164409999999999e-14
F2.9582204999999999e-14
tp1115
sS'JCH3NH2'
p1116
(F2.020437e-09
F1.0102185e-09
tp1117
sS'SiH4+'
p1118
(F1.2287360000000001e-21
F6.1436800000000004e-22
tp1119
sS'SiH+'
p1120
(F1.7603440000000001e-14
F8.8017200000000006e-15
tp1121
sS'C10H'
p1122
(F5.4247730000000004e-10
F2.7123865000000002e-10
tp1123
sS'HS'
p1124
(F2.3761069999999998e-10
F1.1880534999999999e-10
tp1125
sS'HC3O+'
p1126
(F6.9739029999999999e-13
F3.4869515e-13
tp1127
sS'C6H7+'
p1128
(F1.319844e-12
F6.5992200000000002e-13
tp1129
sS'C5-'
p1130
(F3.6247250000000001e-10
F1.8123625000000001e-10
tp1131
sS'HF'
p1132
(F7.1134520000000005e-10
F3.5567260000000003e-10
tp1133
sS'JMg'
p1134
(F6.4033549999999999e-16
F3.2016774999999999e-16
tp1135
sS'JHSS'
p1136
(F1.6661849999999999e-11
F8.3309249999999995e-12
tp1137
sS'HC8N'
p1138
(F3.62995e-10
F1.814975e-10
tp1139
sS'JHCNCC'
p1140
(F2.7860759999999999e-10
F1.393038e-10
tp1141
sS'HCSi'
p1142
(F2.7750029999999999e-12
F1.3875015e-12
tp1143
sS'JHCCNC'
p1144
(F2.4102119999999999e-09
F1.205106e-09
tp1145
sS'C2H6CO+'
p1146
(F2.3227070000000002e-19
F1.1613535000000001e-19
tp1147
sS'S2+'
p1148
(F1.374959e-13
F6.874795e-14
tp1149
sS'He'
p1150
(F0.089999999999999997
F0.044999999999999998
tp1151
sS'C+'
p1152
(F2.2823979999999999e-10
F1.141199e-10
tp1153
sS'C2HO+'
p1154
(F3.638732e-14
F1.819366e-14
tp1155
sS'C4H3+'
p1156
(F4.808548e-11
F2.404274e-11
tp1157
sS'O'
(F5.6002090000000004e-07
F2.8001045000000002e-07
tp1158
sS'SiC3H+'
p1159
(F2.4594040000000001e-14
F1.229702e-14
tp1160
sS'SiC3H5'
p1161
(F3.2916669999999999e-41
F1.6458335e-41
tp1162
sS'CH2CHC2H'
p1163
(F2.3035139999999999e-10
F1.151757e-10
tp1164
sS'C10-'
p1165
(F4.7811449999999998e-11
F2.3905724999999999e-11
tp1166
sS'C2H2+'
p1167
(F2.868851e-13
F1.4344255e-13
tp1168
sS'C10+'
p1169
(F6.0704130000000002e-15
F3.0352065000000001e-15
tp1170
sS'H2'
p1171
(F0.4997009
F0.24985045
tp1172
sS'HCS+'
p1173
(F3.6862840000000002e-12
F1.8431420000000001e-12
tp1174
sS'HSiO+'
p1175
(F6.9585300000000002e-13
F3.4792650000000001e-13
tp1176
sS'C6H6'
p1177
(F1.061268e-09
F5.3063399999999999e-10
tp1178
sS'C6H4'
p1179
(F4.5605620000000003e-11
F2.2802810000000001e-11
tp1180
sS'C6H+'
p1181
(F5.7035379999999996e-13
F2.8517689999999998e-13
tp1182
sS'H+'
p1183
(F4.2668349999999997e-11
F2.1334174999999999e-11
tp1184
sS'C6H-'
p1185
(F4.698027e-10
F2.3490135e-10
tp1186
sS'H-'
p1187
(F1.3814929999999999e-12
F6.9074649999999996e-13
tp1188
sS'C5N'
p1189
(F3.4035069999999998e-09
F1.7017534999999999e-09
tp1190
sS'JClO'
p1191
(F9.7790370000000009e-41
F4.8895185000000005e-41
tp1192
sS'C5H3N+'
p1193
(F1.059294e-14
F5.2964699999999999e-15
tp1194
sS'Jc-C3H'
p1195
(F1.185147e-21
F5.9257350000000002e-22
tp1196
sS'C5H'
p1197
(F5.3460830000000003e-09
F2.6730415000000002e-09
tp1198
sS'H2SiO'
p1199
(F1.786256e-13
F8.9312800000000001e-14
tp1200
sS'JSO'
p1201
(F1.0333239999999999e-09
F5.1666199999999997e-10
tp1202
sS'Mg'
p1203
(F9.5679179999999991e-10
F4.7839589999999996e-10
tp1204
sS'C3N-'
p1205
(F5.2499279999999998e-11
F2.6249639999999999e-11
tp1206
sS'JC10H'
p1207
(F1.960094e-09
F9.8004700000000002e-10
tp1208
sS'C3N+'
p1209
(F2.554971e-17
F1.2774855e-17
tp1210
sS'JSiO2'
p1211
(F4.185274e-13
F2.092637e-13
tp1212
sS'JMgH'
p1213
(F8.785853e-16
F4.3929265e-16
tp1214
sS'NH'
p1215
(F5.4984350000000004e-09
F2.7492175000000002e-09
tp1216
sS'C5H+'
p1217
(F1.740777e-11
F8.7038849999999999e-12
tp1218
sS'NO'
p1219
(F1.0774180000000001e-08
F5.3870900000000003e-09
tp1220
sS'l-C3H'
p1221
(F1.5799540000000001e-08
F7.8997700000000007e-09
tp1222
sS'FeH'
p1223
(F1.1785979999999999e-12
F5.8929899999999995e-13
tp1224
sS'C5H-'
p1225
(F5.297469e-10
F2.6487345e-10
tp1226
sS'Jc-HCCHSi'
p1227
(F8.4348289999999993e-12
F4.2174144999999997e-12
tp1228
sS'C9N+'
p1229
(F2.1881189999999999e-18
F1.0940595e-18
tp1230
sS'HC7N'
p1231
(F9.5737429999999994e-09
F4.7868714999999997e-09
tp1232
sS'HOCO+'
p1233
(F5.5599560000000002e-12
F2.7799780000000001e-12
tp1234
sS'JC5H4'
p1235
(F5.3691440000000002e-08
F2.6845720000000001e-08
tp1236
sS'JC5H3'
p1237
(F3.4917259999999999e-14
F1.7458629999999999e-14
tp1238
sS'JC5H2'
p1239
(F2.0732020000000001e-09
F1.036601e-09
tp1240
sS'HC7H'
p1241
(F5.6592049999999998e-08
F2.8296024999999999e-08
tp1242
sS'C5N+'
p1243
(F2.4446890000000002e-18
F1.2223445000000001e-18
tp1244
sS'N+'
p1245
(F2.3776510000000001e-14
F1.1888255000000001e-14
tp1246
sS'C7H5+'
p1247
(F2.5408390000000001e-12
F1.2704195000000001e-12
tp1248
sS'Fe+'
p1249
(F5.645271e-12
F2.8226355e-12
tp1250
sS'C8H4N+'
p1251
(F4.0705409999999997e-14
F2.0352704999999999e-14
tp1252
sS'HCNH+'
p1253
(F8.5925189999999999e-10
F4.2962595e-10
tp1254
sS'JNaOH'
p1255
(F5.6905709999999997e-14
F2.8452854999999998e-14
tp1256
sS'JHC2O'
p1257
(F2.5419800000000002e-18
F1.2709900000000001e-18
tp1258
sS'HC4S+'
p1259
(F7.9767570000000003e-13
F3.9883785000000002e-13
tp1260
sS'JCH2OH'
p1261
(F2.0246579999999999e-13
F1.012329e-13
tp1262
sS'JC4H'
p1263
(F7.5546880000000001e-15
F3.777344e-15
tp1264
sS'Jc-C3H2'
p1265
(F3.551122e-13
F1.775561e-13
tp1266
sS'JCH3'
p1267
(F1.685467e-12
F8.4273349999999999e-13
tp1268
sS'JCH2'
p1269
(F1.6836830000000001e-12
F8.4184150000000003e-13
tp1270
sS'JCH4'
p1271
(F5.3145220000000002e-05
F2.6572610000000001e-05
tp1272
sS'PCH3+'
p1273
(F6.2644030000000002e-16
F3.1322015000000001e-16
tp1274
sS'HF+'
p1275
(F1.5320529999999999e-18
F7.6602649999999997e-19
tp1276
sS'C7N+'
p1277
(F2.5930550000000001e-18
F1.2965275000000001e-18
tp1278
sS'PH3+'
p1279
(F2.8801190000000001e-15
F1.4400595000000001e-15
tp1280
sS'JNaH'
p1281
(F1.726703e-09
F8.6335149999999998e-10
tp1282
sS'C9H2+'
p1283
(F1.36009e-11
F6.8004499999999998e-12
tp1284
sS'C8H2+'
p1285
(F5.1427069999999999e-11
F2.5713534999999999e-11
tp1286
sS'JCH3CHCH2'
p1287
(F1.696708e-40
F8.4835400000000002e-41
tp1288
sS'C9H2N+'
p1289
(F1.157708e-10
F5.7885400000000001e-11
tp1290
sS'H2CSiCH'
p1291
(F1.994779e-11
F9.9738950000000001e-12
tp1292
sS'HC2NCH+'
p1293
(F1.361675e-11
F6.8083750000000001e-12
tp1294
sS'HS2+'
p1295
(F3.3256290000000001e-15
F1.6628145000000001e-15
tp1296
sS'SiS'
p1297
(F9.0436839999999995e-15
F4.5218419999999998e-15
tp1298
sS'CH3OCH4+'
p1299
(F6.5185150000000003e-17
F3.2592575000000002e-17
tp1300
sS'H2S+'
p1301
(F3.0308129999999998e-12
F1.5154064999999999e-12
tp1302
sS'C5+'
p1303
(F3.329019e-16
F1.6645095e-16
tp1304
sS'SiC8H'
p1305
(F4.3808410000000002e-10
F2.1904205000000001e-10
tp1306
sS'SiC'
p1307
(F7.0705529999999997e-12
F3.5352764999999999e-12
tp1308
sS'PC2H+'
p1309
(F2.8354950000000001e-15
F1.4177475000000001e-15
tp1310
sS'CN-'
p1311
(F1.5928569999999999e-11
F7.9642849999999993e-12
tp1312
sS'SiO'
p1313
(F6.5878299999999997e-11
F3.2939149999999999e-11
tp1314
sS'CN+'
p1315
(F1.9782680000000001e-16
F9.8913400000000006e-17
tp1316
sS'JCO2'
p1317
(F1.6374300000000001e-08
F8.1871500000000006e-09
tp1318
sS'SiC6H'
p1319
(F4.1942679999999998e-10
F2.0971339999999999e-10
tp1320
sS'JCH2NH'
p1321
(F2.2511320000000001e-09
F1.125566e-09
tp1322
sS'JHNSi'
p1323
(F2.6457710000000001e-11
F1.3228855000000001e-11
tp1324
sS'C4H2'
p1325
(F7.0851610000000006e-08
F3.5425805000000003e-08
tp1326
sS'H3CS+'
p1327
(F1.238636e-12
F6.1931799999999999e-13
tp1328
sS'C4H+'
p1329
(F5.4675890000000003e-15
F2.7337945000000002e-15
tp1330
sS'C4H-'
p1331
(F2.9370469999999998e-10
F1.4685234999999999e-10
tp1332
sS'JHCCP'
p1333
(F5.13123e-14
F2.565615e-14
tp1334
sS'CH3C3N'
p1335
(F1.1609700000000001e-11
F5.8048500000000003e-12
tp1336
sS'Si+'
p1337
(F1.2402800000000001e-13
F6.2014000000000005e-14
tp1338
sS'JO2H'
p1339
(F4.7729470000000003e-14
F2.3864735000000001e-14
tp1340
sS'H3C3O+'
p1341
(F1.4362080000000001e-13
F7.1810400000000003e-14
tp1342
sS'H2PO+'
p1343
(F3.3231050000000002e-15
F1.6615525000000001e-15
tp1344
sS'JC4N'
p1345
(F4.5642620000000003e-09
F2.2821310000000002e-09
tp1346
sS'HC5N'
p1347
(F8.0883300000000003e-09
F4.0441650000000002e-09
tp1348
sS'C6H3+'
p1349
(F1.885934e-11
F9.4296700000000001e-12
tp1350
sS'HOCS+'
p1351
(F3.1212600000000002e-13
F1.5606300000000001e-13
tp1352
sS'JNH2CN'
p1353
(F9.5952420000000004e-41
F4.7976210000000002e-41
tp1354
sS'H2C5N+'
p1355
(F2.6535020000000001e-11
F1.326751e-11
tp1356
sS'C2H6+'
p1357
(F4.8571510000000003e-15
F2.4285755000000001e-15
tp1358
sS'JC4P'
p1359
(F2.8383630000000001e-14
F1.4191815e-14
tp1360
sS'JC4S'
p1361
(F1.304985e-10
F6.5249250000000001e-11
tp1362
s.